; Function Attrs: nounwind sspstrong uwtable
define internal void @drive_backup_abort(ptr noundef readonly captures(none) %0) #0 {
  %2 = getelementptr inbounds nuw i8, ptr %0, i64 8
  %3 = load ptr, ptr %2, align 8
  %.not = icmp eq ptr %3, null
  br i1 %.not, label %6, label %4

4:                                                ; preds = %1
  %5 = tail call i32 @job_cancel_sync(ptr noundef nonnull %3, i1 noundef zeroext true) #14
  br label %6

6:                                                ; preds = %4, %1
  ret void
}